; Function Attrs: nounwind uwtable
define i32 @stbsp_snprintf(ptr noundef %0, i32 noundef %1, ptr noundef %2, ...) local_unnamed_addr #4 {
  %4 = alloca %struct.stbsp__context, align 8
  %5 = alloca [1 x %struct.__va_list_tag], align 16
  call void @llvm.lifetime.start.p0(i64 24, ptr nonnull %5) #13
  call void @llvm.va_start.p0(ptr nonnull %5)
  call void @llvm.lifetime.start.p0(i64 528, ptr nonnull %4) #13
  %6 = icmp ne i32 %1, 0
  %7 = icmp ne ptr %0, null
  %or.cond.i = or i1 %7, %6
  br i1 %or.cond.i, label %12, label %8

8:                                                ; preds = %3
  %9 = getelementptr inbounds nuw i8, ptr %4, i64 12
  store i32 0, ptr %9, align 4, !tbaa !51
  %10 = getelementptr inbounds nuw i8, ptr %4, i64 16
  %11 = call i32 @stbsp_vsprintfcb(ptr noundef nonnull @stbsp__count_clamp_callback, ptr noundef nonnull %4, ptr noundef nonnull %10, ptr noundef %2, ptr noundef nonnull %5)
  br label %stbsp_vsnprintf.exit

12:                                               ; preds = %3
  store ptr %0, ptr %4, align 8, !tbaa !54
  %13 = getelementptr inbounds nuw i8, ptr %4, i64 8
  store i32 %1, ptr %13, align 8, !tbaa !53
  %14 = getelementptr inbounds nuw i8, ptr %4, i64 12
  store i32 0, ptr %14, align 4, !tbaa !51
  %.not.i.i = icmp sgt i32 %1, -1
  br i1 %.not.i.i, label %16, label %.thread.i

.thread.i:                                        ; preds = %12
  %.not34.i.i = icmp eq ptr %0, null
  %.pre36.i.i = sext i32 %1 to i64
  call void @llvm.assume(i1 %.not34.i.i)
  %15 = getelementptr inbounds i8, ptr null, i64 %.pre36.i.i
  store ptr %15, ptr %4, align 8, !tbaa !54
  store i32 0, ptr %13, align 8, !tbaa !53
  br label %18

16:                                               ; preds = %12
  %17 = icmp eq i32 %1, 0
  br i1 %17, label %18, label %20

18:                                               ; preds = %16, %.thread.i
  %19 = getelementptr inbounds nuw i8, ptr %4, i64 16
  br label %stbsp__clamp_callback.exit.i

20:                                               ; preds = %16
  %21 = icmp samesign ugt i32 %1, 511
  %22 = getelementptr inbounds nuw i8, ptr %4, i64 16
  %spec.select16.i = select i1 %21, ptr %0, ptr %22
  br label %stbsp__clamp_callback.exit.i

stbsp__clamp_callback.exit.i:                     ; preds = %20, %18
  %.026.i.i = phi ptr [ %19, %18 ], [ %spec.select16.i, %20 ]
  %23 = call i32 @stbsp_vsprintfcb(ptr noundef nonnull @stbsp__clamp_callback, ptr noundef nonnull %4, ptr noundef %.026.i.i, ptr noundef %2, ptr noundef nonnull %5)
  %24 = load ptr, ptr %4, align 8, !tbaa !54
  %25 = ptrtoint ptr %24 to i64
  %26 = ptrtoint ptr %0 to i64
  %27 = sub i64 %25, %26
  %28 = trunc i64 %27 to i32
  %.not.i = icmp sgt i32 %1, %28
  %29 = add nsw i32 %1, -1
  %spec.select.i = select i1 %.not.i, i32 %28, i32 %29
  %30 = sext i32 %spec.select.i to i64
  %31 = getelementptr inbounds i8, ptr %0, i64 %30
  store i8 0, ptr %31, align 1, !tbaa !3
  br label %stbsp_vsnprintf.exit

stbsp_vsnprintf.exit:                             ; preds = %8, %stbsp__clamp_callback.exit.i
  %32 = getelementptr inbounds nuw i8, ptr %4, i64 12
  %33 = load i32, ptr %32, align 4, !tbaa !51
  call void @llvm.lifetime.end.p0(i64 528, ptr nonnull %4) #13
  call void @llvm.va_end.p0(ptr nonnull %5)
  call void @llvm.lifetime.end.p0(i64 24, ptr nonnull %5) #13
  ret i32 %33
}